; Function Attrs: nounwind uwtable
define dso_local ptr @reftable_strdup(ptr noundef readonly captures(none) %0) local_unnamed_addr #0 {
  %2 = tail call i64 @strlen(ptr noundef nonnull dereferenceable(1) %0) #23
  %3 = add i64 %2, 1
  %.not.i = icmp eq i64 %3, 0
  br i1 %.not.i, label %reftable_malloc.exit.thread, label %4

4:                                                ; preds = %1
  %5 = load ptr, ptr @reftable_malloc_ptr, align 8, !tbaa !4
  %.not5.i = icmp eq ptr %5, null
  br i1 %.not5.i, label %8, label %6

6:                                                ; preds = %4
  %7 = tail call ptr %5(i64 noundef %3) #20
  br label %reftable_malloc.exit

8:                                                ; preds = %4
  %9 = tail call noalias ptr @malloc(i64 noundef %3) #21
  br label %reftable_malloc.exit

reftable_malloc.exit:                             ; preds = %6, %8
  %.0.i = phi ptr [ %7, %6 ], [ %9, %8 ]
  %.not = icmp eq ptr %.0.i, null
  br i1 %.not, label %reftable_malloc.exit.thread, label %10

10:                                               ; preds = %reftable_malloc.exit
  tail call void @llvm.memcpy.p0.p0.i64(ptr nonnull align 1 %.0.i, ptr nonnull align 1 %0, i64 %3, i1 false)
  br label %reftable_malloc.exit.thread

reftable_malloc.exit.thread:                      ; preds = %1, %reftable_malloc.exit, %10
  %.0 = phi ptr [ %.0.i, %10 ], [ null, %reftable_malloc.exit ], [ null, %1 ]
  ret ptr %.0
}